target datalayout = "e-m:e-p270:32:32-p271:32:32-p272:64:64-i64:64-i128:128-f80:128-n8:16:32:64-S128"
target triple = "x86_64-pc-linux-gnu"

%struct._priv_exr_context_t = type { i8, i8, i8, i8, i8, i8, i8, i8, %struct.exr_attr_string_t, %struct.exr_attr_string_t, ptr, ptr, ptr, ptr, ptr, ptr, ptr, ptr, i32, i32, i32, i32, i32, float, ptr, ptr, ptr, i64, ptr, ptr, i64, i32, i32, i32, i32, %struct._priv_exr_part_t, ptr, ptr, %struct.exr_attribute_list, %union.pthread_mutex_t, i8, i8, [2 x i8], i32 }
%struct.exr_attr_string_t = type { i32, i32, ptr }
%struct._priv_exr_part_t = type { i32, i32, %struct.exr_attribute_list, ptr, ptr, ptr, ptr, ptr, ptr, ptr, ptr, ptr, ptr, ptr, ptr, ptr, ptr, %struct.exr_attr_box2i_t, %struct.exr_attr_box2i_t, i32, i32, i32, float, i32, i32, ptr, ptr, ptr, ptr, i64, i16, i16, i32, i64, i64 }
%struct.exr_attr_box2i_t = type { %struct.exr_attr_v2i_t, %struct.exr_attr_v2i_t }
%struct.exr_attr_v2i_t = type { i32, i32 }
%struct.exr_attribute_list = type { i32, i32, ptr, ptr }
%union.pthread_mutex_t = type { %struct.__pthread_mutex_s }
%struct.__pthread_mutex_s = type { i32, i32, i32, i32, i32, i16, i16, %struct.__pthread_internal_list }
%struct.__pthread_internal_list = type { ptr, ptr }
%struct.exr_attribute_t = type { ptr, ptr, i8, i8, [2 x i8], i32, %union.anon }
%union.anon = type { double }
%struct.exr_attr_string_vector_t = type { i32, i32, ptr }

; Function Attrs: inlinehint nounwind uwtable
define internal void @priv_from_native32(ptr noundef %0, i32 noundef %1) #2 {
  %3 = alloca ptr, align 8
  %4 = alloca i32, align 4
  store ptr %0, ptr %3, align 8, !tbaa !32
  store i32 %1, ptr %4, align 4, !tbaa !10
  ret void
}

; Function Attrs: nounwind uwtable
define internal i32 @save_attr_sz(ptr noundef %0, i64 noundef %1) #0 {
  %3 = alloca i32, align 4
  %4 = alloca ptr, align 8
  %5 = alloca i64, align 8
  %6 = alloca i32, align 4
  %7 = alloca i32, align 4
  store ptr %0, ptr %4, align 8, !tbaa !3
  store i64 %1, ptr %5, align 8, !tbaa !61
  call void @llvm.lifetime.start.p0(i64 4, ptr %6) #6
  %8 = load i64, ptr %5, align 8, !tbaa !61
  %9 = icmp ugt i64 %8, 2147483647
  br i1 %9, label %10, label %16

10:                                               ; preds = %2
  %11 = load ptr, ptr %4, align 8, !tbaa !3
  %12 = getelementptr inbounds nuw %struct._priv_exr_context_t, ptr %11, i32 0, i32 12
  %13 = load ptr, ptr %12, align 8, !tbaa !57
  %14 = load ptr, ptr %4, align 8, !tbaa !3
  %15 = call i32 %13(ptr noundef %14, i32 noundef 3)
  store i32 %15, ptr %3, align 4
  store i32 1, ptr %7, align 4
  br label %26

16:                                               ; preds = %2
  %17 = load i64, ptr %5, align 8, !tbaa !61
  %18 = trunc i64 %17 to i32
  store i32 %18, ptr %6, align 4, !tbaa !10
  call void @priv_from_native32(ptr noundef %6, i32 noundef 1)
  %19 = load ptr, ptr %4, align 8, !tbaa !3
  %20 = getelementptr inbounds nuw %struct._priv_exr_context_t, ptr %19, i32 0, i32 11
  %21 = load ptr, ptr %20, align 8, !tbaa !49
  %22 = load ptr, ptr %4, align 8, !tbaa !3
  %23 = load ptr, ptr %4, align 8, !tbaa !3
  %24 = getelementptr inbounds nuw %struct._priv_exr_context_t, ptr %23, i32 0, i32 30
  %25 = call i32 %21(ptr noundef %22, ptr noundef %6, i64 noundef 4, ptr noundef %24)
  store i32 %25, ptr %3, align 4
  store i32 1, ptr %7, align 4
  br label %26

26:                                               ; preds = %16, %10
  call void @llvm.lifetime.end.p0(i64 4, ptr %6) #6
  %27 = load i32, ptr %3, align 4
  ret i32 %27
}

; Function Attrs: nounwind uwtable
define internal i32 @save_string_vector(ptr noundef %0, ptr noundef %1) #0 {
  %3 = alloca ptr, align 8
  %4 = alloca ptr, align 8
  %5 = alloca i32, align 4
  %6 = alloca i64, align 8
  %7 = alloca i32, align 4
  %8 = alloca i32, align 4
  %9 = alloca ptr, align 8
  store ptr %0, ptr %3, align 8, !tbaa !3
  store ptr %1, ptr %4, align 8, !tbaa !32
  call void @llvm.lifetime.start.p0(i64 4, ptr %5) #6
  call void @llvm.lifetime.start.p0(i64 8, ptr %6) #6
  store i64 0, ptr %6, align 8, !tbaa !61
  call void @llvm.lifetime.start.p0(i64 4, ptr %7) #6
  store i32 0, ptr %7, align 4, !tbaa !10
  br label %10

10:                                               ; preds = %35, %2
  %11 = load i32, ptr %7, align 4, !tbaa !10
  %12 = load ptr, ptr %4, align 8, !tbaa !32
  %13 = getelementptr inbounds nuw %struct.exr_attribute_t, ptr %12, i32 0, i32 6
  %14 = load ptr, ptr %13, align 8, !tbaa !37
  %15 = getelementptr inbounds nuw %struct.exr_attr_string_vector_t, ptr %14, i32 0, i32 0
  %16 = load i32, ptr %15, align 8, !tbaa !38
  %17 = icmp slt i32 %11, %16
  br i1 %17, label %19, label %18

18:                                               ; preds = %10
  call void @llvm.lifetime.end.p0(i64 4, ptr %7) #6
  br label %38

19:                                               ; preds = %10
  %20 = load i64, ptr %6, align 8, !tbaa !61
  %21 = add i64 %20, 4
  store i64 %21, ptr %6, align 8, !tbaa !61
  %22 = load ptr, ptr %4, align 8, !tbaa !32
  %23 = getelementptr inbounds nuw %struct.exr_attribute_t, ptr %22, i32 0, i32 6
  %24 = load ptr, ptr %23, align 8, !tbaa !37
  %25 = getelementptr inbounds nuw %struct.exr_attr_string_vector_t, ptr %24, i32 0, i32 2
  %26 = load ptr, ptr %25, align 8, !tbaa !40
  %27 = load i32, ptr %7, align 4, !tbaa !10
  %28 = sext i32 %27 to i64
  %29 = getelementptr inbounds %struct.exr_attr_string_t, ptr %26, i64 %28
  %30 = getelementptr inbounds nuw %struct.exr_attr_string_t, ptr %29, i32 0, i32 0
  %31 = load i32, ptr %30, align 8, !tbaa !90
  %32 = sext i32 %31 to i64
  %33 = load i64, ptr %6, align 8, !tbaa !61
  %34 = add i64 %33, %32
  store i64 %34, ptr %6, align 8, !tbaa !61
  br label %35

35:                                               ; preds = %19
  %36 = load i32, ptr %7, align 4, !tbaa !10
  %37 = add nsw i32 %36, 1
  store i32 %37, ptr %7, align 4, !tbaa !10
  br label %10, !llvm.loop !92

38:                                               ; preds = %18
  %39 = load ptr, ptr %3, align 8, !tbaa !3
  %40 = load i64, ptr %6, align 8, !tbaa !61
  %41 = call i32 @save_attr_sz(ptr noundef %39, i64 noundef %40)
  store i32 %41, ptr %5, align 4, !tbaa !10
  call void @llvm.lifetime.start.p0(i64 4, ptr %8) #6
  store i32 0, ptr %8, align 4, !tbaa !10
  br label %42

42:                                               ; preds = %89, %38
  %43 = load i32, ptr %5, align 4, !tbaa !10
  %44 = icmp eq i32 %43, 0
  br i1 %44, label %45, label %53

45:                                               ; preds = %42
  %46 = load i32, ptr %8, align 4, !tbaa !10
  %47 = load ptr, ptr %4, align 8, !tbaa !32
  %48 = getelementptr inbounds nuw %struct.exr_attribute_t, ptr %47, i32 0, i32 6
  %49 = load ptr, ptr %48, align 8, !tbaa !37
  %50 = getelementptr inbounds nuw %struct.exr_attr_string_vector_t, ptr %49, i32 0, i32 0
  %51 = load i32, ptr %50, align 8, !tbaa !38
  %52 = icmp slt i32 %46, %51
  br label %53

53:                                               ; preds = %45, %42
  %54 = phi i1 [ false, %42 ], [ %52, %45 ]
  br i1 %54, label %56, label %55

55:                                               ; preds = %53
  call void @llvm.lifetime.end.p0(i64 4, ptr %8) #6
  br label %92

56:                                               ; preds = %53
  call void @llvm.lifetime.start.p0(i64 8, ptr %9) #6
  %57 = load ptr, ptr %4, align 8, !tbaa !32
  %58 = getelementptr inbounds nuw %struct.exr_attribute_t, ptr %57, i32 0, i32 6
  %59 = load ptr, ptr %58, align 8, !tbaa !37
  %60 = getelementptr inbounds nuw %struct.exr_attr_string_vector_t, ptr %59, i32 0, i32 2
  %61 = load ptr, ptr %60, align 8, !tbaa !40
  %62 = load i32, ptr %8, align 4, !tbaa !10
  %63 = sext i32 %62 to i64
  %64 = getelementptr inbounds %struct.exr_attr_string_t, ptr %61, i64 %63
  store ptr %64, ptr %9, align 8, !tbaa !32
  %65 = load ptr, ptr %3, align 8, !tbaa !3
  %66 = load ptr, ptr %9, align 8, !tbaa !32
  %67 = getelementptr inbounds nuw %struct.exr_attr_string_t, ptr %66, i32 0, i32 0
  %68 = load i32, ptr %67, align 8, !tbaa !90
  %69 = sext i32 %68 to i64
  %70 = call i32 @save_attr_sz(ptr noundef %65, i64 noundef %69)
  store i32 %70, ptr %5, align 4, !tbaa !10
  %71 = load i32, ptr %5, align 4, !tbaa !10
  %72 = icmp eq i32 %71, 0
  br i1 %72, label %73, label %88

73:                                               ; preds = %56
  %74 = load ptr, ptr %3, align 8, !tbaa !3
  %75 = getelementptr inbounds nuw %struct._priv_exr_context_t, ptr %74, i32 0, i32 11
  %76 = load ptr, ptr %75, align 8, !tbaa !49
  %77 = load ptr, ptr %3, align 8, !tbaa !3
  %78 = load ptr, ptr %9, align 8, !tbaa !32
  %79 = getelementptr inbounds nuw %struct.exr_attr_string_t, ptr %78, i32 0, i32 2
  %80 = load ptr, ptr %79, align 8, !tbaa !91
  %81 = load ptr, ptr %9, align 8, !tbaa !32
  %82 = getelementptr inbounds nuw %struct.exr_attr_string_t, ptr %81, i32 0, i32 0
  %83 = load i32, ptr %82, align 8, !tbaa !90
  %84 = sext i32 %83 to i64
  %85 = load ptr, ptr %3, align 8, !tbaa !3
  %86 = getelementptr inbounds nuw %struct._priv_exr_context_t, ptr %85, i32 0, i32 30
  %87 = call i32 %76(ptr noundef %77, ptr noundef %80, i64 noundef %84, ptr noundef %86)
  store i32 %87, ptr %5, align 4, !tbaa !10
  br label %88

88:                                               ; preds = %73, %56
  call void @llvm.lifetime.end.p0(i64 8, ptr %9) #6
  br label %89

89:                                               ; preds = %88
  %90 = load i32, ptr %8, align 4, !tbaa !10
  %91 = add nsw i32 %90, 1
  store i32 %91, ptr %8, align 4, !tbaa !10
  br label %42, !llvm.loop !93

92:                                               ; preds = %55
  %93 = load i32, ptr %5, align 4, !tbaa !10
  call void @llvm.lifetime.end.p0(i64 8, ptr %6) #6
  call void @llvm.lifetime.end.p0(i64 4, ptr %5) #6
  ret i32 %93
}