; Function Attrs: nounwind uwtable
define internal fastcc i32 @save_string_vector(ptr noundef %0, ptr noundef readonly captures(none) %1) unnamed_addr #2 {
  %3 = alloca i32, align 4
  %4 = alloca i32, align 4
  %5 = getelementptr inbounds nuw i8, ptr %1, i64 24
  %6 = load ptr, ptr %5, align 8, !tbaa !35
  %7 = load i32, ptr %6, align 8, !tbaa !36
  %8 = icmp sgt i32 %7, 0
  br i1 %8, label %.lr.ph, label %._crit_edge.thread

._crit_edge.thread:                               ; preds = %2
  call void @llvm.lifetime.start.p0(i64 4, ptr nonnull %4) #6
  br label %16

.lr.ph:                                           ; preds = %2
  %9 = getelementptr inbounds nuw i8, ptr %6, i64 8
  %10 = load ptr, ptr %9, align 8, !tbaa !38
  %wide.trip.count = zext nneg i32 %7 to i64
  br label %26

._crit_edge:                                      ; preds = %26
  call void @llvm.lifetime.start.p0(i64 4, ptr nonnull %4) #6
  %11 = icmp ugt i64 %31, 2147483647
  br i1 %11, label %12, label %16

12:                                               ; preds = %._crit_edge
  %13 = getelementptr inbounds nuw i8, ptr %0, i64 56
  %14 = load ptr, ptr %13, align 8, !tbaa !54
  %15 = tail call i32 %14(ptr noundef %0, i32 noundef 3) #6
  br label %save_attr_sz.exit

16:                                               ; preds = %._crit_edge.thread, %._crit_edge
  %.025.lcssa42 = phi i64 [ 0, %._crit_edge.thread ], [ %31, %._crit_edge ]
  %17 = trunc nuw nsw i64 %.025.lcssa42 to i32
  store i32 %17, ptr %4, align 4, !tbaa !43
  %18 = getelementptr inbounds nuw i8, ptr %0, i64 48
  %19 = load ptr, ptr %18, align 8, !tbaa !46
  %20 = getelementptr inbounds nuw i8, ptr %0, i64 176
  %21 = call i32 %19(ptr noundef %0, ptr noundef nonnull %4, i64 noundef 4, ptr noundef nonnull %20) #6
  br label %save_attr_sz.exit

save_attr_sz.exit:                                ; preds = %12, %16
  %.0.i = phi i32 [ %15, %12 ], [ %21, %16 ]
  call void @llvm.lifetime.end.p0(i64 4, ptr nonnull %4) #6
  %22 = icmp eq i32 %.0.i, 0
  br i1 %22, label %.lr.ph33, label %.critedge

.lr.ph33:                                         ; preds = %save_attr_sz.exit
  %23 = getelementptr inbounds nuw i8, ptr %0, i64 48
  %24 = getelementptr inbounds nuw i8, ptr %0, i64 176
  %25 = getelementptr inbounds nuw i8, ptr %0, i64 56
  br label %32

26:                                               ; preds = %.lr.ph, %26
  %indvars.iv = phi i64 [ 0, %.lr.ph ], [ %indvars.iv.next, %26 ]
  %.02529 = phi i64 [ 0, %.lr.ph ], [ %31, %26 ]
  %27 = add i64 %.02529, 4
  %28 = getelementptr inbounds nuw %struct.exr_attr_string_t, ptr %10, i64 %indvars.iv
  %29 = load i32, ptr %28, align 8, !tbaa !84
  %30 = sext i32 %29 to i64
  %31 = add i64 %27, %30
  %indvars.iv.next = add nuw nsw i64 %indvars.iv, 1
  %exitcond.not = icmp eq i64 %indvars.iv.next, %wide.trip.count
  br i1 %exitcond.not, label %._crit_edge, label %26, !llvm.loop !86

32:                                               ; preds = %.lr.ph33, %50
  %indvars.iv38 = phi i64 [ 0, %.lr.ph33 ], [ %indvars.iv.next39, %50 ]
  %33 = load ptr, ptr %5, align 8, !tbaa !35
  %34 = load i32, ptr %33, align 8, !tbaa !36
  %35 = sext i32 %34 to i64
  %36 = icmp slt i64 %indvars.iv38, %35
  br i1 %36, label %37, label %.critedge

.critedge:                                        ; preds = %save_attr_sz.exit28, %32, %50, %save_attr_sz.exit
  %.0.lcssa = phi i32 [ %.0.i, %save_attr_sz.exit ], [ %.0.i27, %save_attr_sz.exit28 ], [ %56, %50 ], [ 0, %32 ]
  ret i32 %.0.lcssa

37:                                               ; preds = %32
  %38 = getelementptr inbounds nuw i8, ptr %33, i64 8
  %39 = load ptr, ptr %38, align 8, !tbaa !38
  %40 = getelementptr inbounds nuw %struct.exr_attr_string_t, ptr %39, i64 %indvars.iv38
  %41 = load i32, ptr %40, align 8, !tbaa !84
  call void @llvm.lifetime.start.p0(i64 4, ptr nonnull %3) #6
  %42 = icmp slt i32 %41, 0
  br i1 %42, label %43, label %46

43:                                               ; preds = %37
  %44 = load ptr, ptr %25, align 8, !tbaa !54
  %45 = call i32 %44(ptr noundef nonnull %0, i32 noundef 3) #6
  br label %save_attr_sz.exit28

46:                                               ; preds = %37
  store i32 %41, ptr %3, align 4, !tbaa !43
  %47 = load ptr, ptr %23, align 8, !tbaa !46
  %48 = call i32 %47(ptr noundef nonnull %0, ptr noundef nonnull %3, i64 noundef 4, ptr noundef nonnull %24) #6
  br label %save_attr_sz.exit28

save_attr_sz.exit28:                              ; preds = %43, %46
  %.0.i27 = phi i32 [ %45, %43 ], [ %48, %46 ]
  call void @llvm.lifetime.end.p0(i64 4, ptr nonnull %3) #6
  %49 = icmp eq i32 %.0.i27, 0
  br i1 %49, label %50, label %.critedge

50:                                               ; preds = %save_attr_sz.exit28
  %51 = load ptr, ptr %23, align 8, !tbaa !46
  %52 = getelementptr inbounds nuw i8, ptr %40, i64 8
  %53 = load ptr, ptr %52, align 8, !tbaa !85
  %54 = load i32, ptr %40, align 8, !tbaa !84
  %55 = sext i32 %54 to i64
  %56 = call i32 %51(ptr noundef nonnull %0, ptr noundef %53, i64 noundef %55, ptr noundef nonnull %24) #6
  %indvars.iv.next39 = add nuw nsw i64 %indvars.iv38, 1
  %57 = icmp eq i32 %56, 0
  br i1 %57, label %32, label %.critedge, !llvm.loop !87
}